target datalayout = "e-m:e-p270:32:32-p271:32:32-p272:64:64-i64:64-i128:128-f80:128-n8:16:32:64-S128"
target triple = "x86_64-unknown-linux-gnu"

%"struct.cvc5::internal::theory::eq::EqualityEngine::TriggerTermSet" = type { i32, [0 x i32] }

; Function Attrs: mustprogress uwtable
define hidden noundef i32 @_ZNK4cvc58internal6theory2eq14EqualityEngine14TriggerTermSet10getTriggerENS1_8TheoryIdE(ptr noundef nonnull align 4 dereferenceable(4) %this, i32 noundef %tag) #4 align 2 {
entry:
  %this.addr = alloca ptr, align 8
  %tag.addr = alloca i32, align 4
  store ptr %this, ptr %this.addr, align 8
  store i32 %tag, ptr %tag.addr, align 4
  %this1 = load ptr, ptr %this.addr, align 8
  %d_triggers = getelementptr inbounds %"struct.cvc5::internal::theory::eq::EqualityEngine::TriggerTermSet", ptr %this1, i32 0, i32 1
  %0 = load i32, ptr %tag.addr, align 4
  %d_tags = getelementptr inbounds %"struct.cvc5::internal::theory::eq::EqualityEngine::TriggerTermSet", ptr %this1, i32 0, i32 0
  %1 = load i32, ptr %d_tags, align 4
  %call = call noundef i64 @_ZN4cvc58internal6theory15TheoryIdSetUtil8setIndexENS1_8TheoryIdEj(i32 noundef %0, i32 noundef %1)
  %arrayidx = getelementptr inbounds [0 x i32], ptr %d_triggers, i64 0, i64 %call
  %2 = load i32, ptr %arrayidx, align 4
  ret i32 %2
}