; Function Attrs: mustprogress uwtable
define hidden noundef i32 @_ZNK4cvc58internal6theory2eq14EqualityEngine14TriggerTermSet10getTriggerENS1_8TheoryIdE(ptr nocapture noundef nonnull readonly align 4 dereferenceable(4) %this, i32 noundef %tag) local_unnamed_addr #3 align 2 {
entry:
  %d_triggers = getelementptr inbounds i8, ptr %this, i64 4
  %0 = load i32, ptr %this, align 4
  %call = tail call noundef i64 @_ZN4cvc58internal6theory15TheoryIdSetUtil8setIndexENS1_8TheoryIdEj(i32 noundef %tag, i32 noundef %0)
  %arrayidx = getelementptr inbounds [0 x i32], ptr %d_triggers, i64 0, i64 %call
  %1 = load i32, ptr %arrayidx, align 4
  ret i32 %1
}